target datalayout = "e-m:e-p270:32:32-p271:32:32-p272:64:64-i64:64-i128:128-f80:128-n8:16:32:64-S128"
target triple = "x86_64-pc-linux-gnu"

@_ZTIN21PXR_INTERNAL_NS_pegtl11parse_errorE = linkonce_odr constant { ptr, ptr, ptr } { ptr getelementptr inbounds (ptr, ptr @_ZTVN10__cxxabiv120__si_class_type_infoE, i64 2), ptr @_ZTSN21PXR_INTERNAL_NS_pegtl11parse_errorE, ptr @_ZTISt13runtime_error }, comdat, align 8

; Function Attrs: mustprogress noreturn uwtable
define internal void @_ZN32pxrInternal_v0_24__pxrReserved__12_GLOBAL__N_116_ThrowParseErrorIN21PXR_INTERNAL_NS_pegtl8internal12action_inputINS2_12memory_inputILNS2_13tracking_modeE0ENS2_5ascii3eol7lf_crlfENSt7__cxx1112basic_stringIcSt11char_traitsIcESaIcEEEEEEEEEvRKT_RKSF_(ptr noundef nonnull align 8 dereferenceable(40) %0, ptr noundef nonnull align 8 dereferenceable(32) %1) #10 personality ptr @__gxx_personality_v0 {
  %3 = alloca ptr, align 8
  %4 = alloca ptr, align 8
  %5 = alloca ptr, align 8
  %6 = alloca i32, align 4
  store ptr %0, ptr %3, align 8
  store ptr %1, ptr %4, align 8
  %7 = call ptr @__cxa_allocate_exception(i64 32) #3
  %8 = load ptr, ptr %4, align 8
  %9 = load ptr, ptr %3, align 8
  invoke void @_ZN21PXR_INTERNAL_NS_pegtl11parse_errorC2INS_8internal12action_inputINS_12memory_inputILNS_13tracking_modeE0ENS_5ascii3eol7lf_crlfENSt7__cxx1112basic_stringIcSt11char_traitsIcESaIcEEEEEEEEERKSE_RKT_(ptr noundef nonnull align 8 dereferenceable(32) %7, ptr noundef nonnull align 8 dereferenceable(32) %8, ptr noundef nonnull align 8 dereferenceable(40) %9)
          to label %10 unwind label %11

10:                                               ; preds = %2
  call void @__cxa_throw(ptr %7, ptr @_ZTIN21PXR_INTERNAL_NS_pegtl11parse_errorE, ptr @_ZN21PXR_INTERNAL_NS_pegtl11parse_errorD2Ev) #17
  unreachable

11:                                               ; preds = %2
  %12 = landingpad { ptr, i32 }
          cleanup
  %13 = extractvalue { ptr, i32 } %12, 0
  store ptr %13, ptr %5, align 8
  %14 = extractvalue { ptr, i32 } %12, 1
  store i32 %14, ptr %6, align 4
  call void @__cxa_free_exception(ptr %7) #3
  br label %15

15:                                               ; preds = %11
  %16 = load ptr, ptr %5, align 8
  %17 = load i32, ptr %6, align 4
  %18 = insertvalue { ptr, i32 } poison, ptr %16, 0
  %19 = insertvalue { ptr, i32 } %18, i32 %17, 1
  resume { ptr, i32 } %19
}